Certificate:
    Data:
        Version: 3 (0x2)
        Serial Number: 4 (0x4)
        Signature Algorithm: sha1WithRSAEncryption
        Issuer: C=US, ST=Virginia, L=Reston, O=FGM, OU=IDS, CN=RussOlsen
        Validity
            Not Before: Feb  9 15:23:21 2009 GMT
            Not After : Feb  9 15:23:21 2010 GMT
        Subject: C=US, ST=Virginia, O=FGM, OU=IDS, CN=dmz-datapowera.fgm.com
        Subject Public Key Info:
            Public Key Algorithm: rsaEncryption
            RSA Public Key: (1024 bit)
                Modulus (1024 bit):
                    00:cd:a8:58:51:25:13:50:3c:85:3a:76:e9:e7:05:
                    c6:c2:7a:98:b3:b4:4b:56:57:07:54:37:68:3e:4b:
                    04:f2:d4:a8:78:95:28:3d:a2:c4:5f:86:77:5c:0d:
                    ee:46:c9:02:3e:26:62:4c:3a:ff:fa:8a:3d:90:00:
                    8f:f4:c0:4e:f7:f2:5b:2b:b3:27:47:d3:c9:7f:27:
                    c8:e3:7f:81:ea:fb:8b:61:e3:28:58:56:3b:46:31:
                    6c:fe:7f:09:e4:6e:7e:ce:1b:e3:44:56:c0:43:b3:
                    23:5d:6e:27:c1:ad:51:e1:70:25:e4:b6:2a:22:47:
                    93:ed:f4:17:b9:96:19:22:c1
                Exponent: 65537 (0x10001)
        X509v3 extensions:
            X509v3 Basic Constraints: 
                CA:FALSE
            Netscape Comment: 
                OpenSSL Generated Certificate
            X509v3 Subject Key Identifier: 
                AD:C3:40:4D:52:44:19:63:DA:A0:A0:10:46:AF:9F:62:8E:38:58:A5
            X509v3 Authority Key Identifier: 
                keyid:CC:7B:09:6A:34:5C:71:06:20:A4:7E:A7:AF:6E:24:A4:46:41:EE:29

    Signature Algorithm: sha1WithRSAEncryption
        87:c3:66:04:9b:e3:47:86:68:0d:20:6b:d7:6d:0c:81:7a:31:
        a3:c5:67:81:2f:9b:31:19:ff:04:78:ef:2d:c8:6c:07:ee:02:
        fd:1e:56:b9:b9:21:d8:50:80:08:05:6b:5b:78:f1:68:39:ae:
        b8:1e:13:85:bd:ed:47:e4:3b:2b:12:17:6e:1c:cb:7e:a4:57:
        70:3a:32:2a:4b:73:c4:ce:7b:6e:6d:e8:ab:7c:20:97:04:11:
        93:5f:0b:ea:b1:3d:2d:a7:b6:35:05:57:9a:0d:33:07:2f:8c:
        0a:93:2c:b3:65:04:74:eb:5c:01:0c:f7:97:a0:9b:32:bc:38:
        6d:44
-----BEGIN CERTIFICATE-----
MIICrzCCAhigAwIBAgIBBDANBgkqhkiG9w0BAQUFADBhMQswCQYDVQQGEwJVUzER
MA8GA1UECBMIVmlyZ2luaWExDzANBgNVBAcTBlJlc3RvbjEMMAoGA1UEChMDRkdN
MQwwCgYDVQQLEwNJRFMxEjAQBgNVBAMTCVJ1c3NPbHNlbjAeFw0wOTAyMDkxNTIz
MjFaFw0xMDAyMDkxNTIzMjFaMF0xCzAJBgNVBAYTAlVTMREwDwYDVQQIEwhWaXJn
aW5pYTEMMAoGA1UEChMDRkdNMQwwCgYDVQQLEwNJRFMxHzAdBgNVBAMTFmRtei1k
YXRhcG93ZXJhLmZnbS5jb20wgZ8wDQYJKoZIhvcNAQEBBQADgY0AMIGJAoGBAM2o
WFElE1A8hTp26ecFxsJ6mLO0S1ZXB1Q3aD5LBPLUqHiVKD2ixF+Gd1wN7kbJAj4m
Ykw6//qKPZAAj/TATvfyWyuzJ0fTyX8nyON/ger7i2HjKFhWO0YxbP5/CeRufs4b
40RWwEOzI11uJ8GtUeFwJeS2KiJHk+30F7mWGSLBAgMBAAGjezB5MAkGA1UdEwQC
MAAwLAYJYIZIAYb4QgENBB8WHU9wZW5TU0wgR2VuZXJhdGVkIENlcnRpZmljYXRl
MB0GA1UdDgQWBBStw0BNUkQZY9qgoBBGr59ijjhYpTAfBgNVHSMEGDAWgBTMewlq
NFxxBiCkfqevbiSkRkHuKTANBgkqhkiG9w0BAQUFAAOBgQCHw2YEm+NHhmgNIGvX
bQyBejGjxWeBL5sxGf8EeO8tyGwH7gL9Hla5uSHYUIAIBWtbePFoOa64HhOFve1H
5DsrEhduHMt+pFdwOjIqS3PEzntubeirfCCXBBGTXwvqsT0tp7Y1BVeaDTMHL4wK
kyyzZQR061wBDPeXoJsyvDhtRA==
-----END CERTIFICATE-----
