Certificate:
    Data:
        Version: 3 (0x2)
        Serial Number: 3 (0x3)
        Signature Algorithm: sha1WithRSAEncryption
        Issuer: C=US, ST=Virginia, L=Reston, O=FGM, OU=IDS, CN=RussOlsen
        Validity
            Not Before: Feb  6 14:34:24 2009 GMT
            Not After : Feb  6 14:34:24 2010 GMT
        Subject: C=US, ST=Virginia, O=FGM, OU=IDS, CN=Mary Anne
        Subject Public Key Info:
            Public Key Algorithm: rsaEncryption
            RSA Public Key: (1024 bit)
                Modulus (1024 bit):
                    00:f0:f1:23:b1:8a:7c:cd:74:56:8d:e9:26:2d:60:
                    5e:21:e0:c8:48:82:e2:c2:3d:a3:40:9d:eb:0a:6a:
                    b9:be:1b:0e:87:25:21:18:ab:a2:6a:5e:5c:5c:d9:
                    f4:7c:56:01:9b:ab:26:94:bd:20:f7:e0:9b:ab:19:
                    ed:70:63:a1:66:3b:05:72:34:5c:a7:cb:5d:e8:e1:
                    4e:20:53:fb:84:5e:0c:39:be:5f:d8:2e:a9:c8:b8:
                    a9:3e:05:94:fa:10:aa:e4:46:ce:68:cc:16:51:33:
                    6b:cd:db:89:44:62:48:6a:f4:21:9d:66:a4:fd:8b:
                    bd:66:ea:da:ad:a7:39:97:79
                Exponent: 65537 (0x10001)
        X509v3 extensions:
            X509v3 Basic Constraints: 
                CA:FALSE
            Netscape Comment: 
                OpenSSL Generated Certificate
            X509v3 Subject Key Identifier: 
                26:40:AE:59:98:5B:D4:B4:B7:7F:4C:47:16:81:F1:E6:99:17:CD:07
            X509v3 Authority Key Identifier: 
                keyid:CC:7B:09:6A:34:5C:71:06:20:A4:7E:A7:AF:6E:24:A4:46:41:EE:29

    Signature Algorithm: sha1WithRSAEncryption
        4b:16:de:e2:3a:f9:69:7f:bf:90:cc:77:1d:2b:81:fc:da:69:
        86:bb:87:79:54:0b:da:d5:03:00:de:81:45:86:07:64:24:c1:
        68:73:98:98:26:65:ce:34:7d:58:fb:6c:fb:3e:37:9b:f8:98:
        a6:b3:82:e9:2b:2d:42:ae:ac:49:41:b2:3b:ba:01:9e:d0:ff:
        8a:f4:21:00:5f:fa:93:85:c1:1a:54:1e:31:f2:0d:45:5a:ee:
        15:6f:20:fc:32:e9:21:91:36:5d:c8:0c:8b:3b:a9:dd:e3:ad:
        e8:66:7d:e7:1b:91:ce:ca:47:2b:77:19:21:1b:78:79:12:14:
        d0:06
-----BEGIN CERTIFICATE-----
MIICojCCAgugAwIBAgIBAzANBgkqhkiG9w0BAQUFADBhMQswCQYDVQQGEwJVUzER
MA8GA1UECBMIVmlyZ2luaWExDzANBgNVBAcTBlJlc3RvbjEMMAoGA1UEChMDRkdN
MQwwCgYDVQQLEwNJRFMxEjAQBgNVBAMTCVJ1c3NPbHNlbjAeFw0wOTAyMDYxNDM0
MjRaFw0xMDAyMDYxNDM0MjRaMFAxCzAJBgNVBAYTAlVTMREwDwYDVQQIEwhWaXJn
aW5pYTEMMAoGA1UEChMDRkdNMQwwCgYDVQQLEwNJRFMxEjAQBgNVBAMTCU1hcnkg
QW5uZTCBnzANBgkqhkiG9w0BAQEFAAOBjQAwgYkCgYEA8PEjsYp8zXRWjekmLWBe
IeDISILiwj2jQJ3rCmq5vhsOhyUhGKuial5cXNn0fFYBm6smlL0g9+CbqxntcGOh
ZjsFcjRcp8td6OFOIFP7hF4MOb5f2C6pyLipPgWU+hCq5EbOaMwWUTNrzduJRGJI
avQhnWak/Yu9Zurarac5l3kCAwEAAaN7MHkwCQYDVR0TBAIwADAsBglghkgBhvhC
AQ0EHxYdT3BlblNTTCBHZW5lcmF0ZWQgQ2VydGlmaWNhdGUwHQYDVR0OBBYEFCZA
rlmYW9S0t39MRxaB8eaZF80HMB8GA1UdIwQYMBaAFMx7CWo0XHEGIKR+p69uJKRG
Qe4pMA0GCSqGSIb3DQEBBQUAA4GBAEsW3uI6+Wl/v5DMdx0rgfzaaYa7h3lUC9rV
AwDegUWGB2QkwWhzmJgmZc40fVj7bPs+N5v4mKazgukrLUKurElBsju6AZ7Q/4r0
IQBf+pOFwRpUHjHyDUVa7hVvIPwy6SGRNl3IDIs7qd3jrehmfecbkc7KRyt3GSEb
eHkSFNAG
-----END CERTIFICATE-----
